; Function Attrs: nofree norecurse nosync nounwind memory(read, inaccessiblemem: none) uwtable
define i32 @Llb_ManComputeCommonQuant(ptr noundef readonly captures(none) %0, i32 noundef %1, i32 noundef %2) local_unnamed_addr #0 {
  %4 = getelementptr inbounds nuw i8, ptr %0, i64 8
  %5 = load i32, ptr %4, align 8, !tbaa !3
  %6 = getelementptr inbounds nuw i8, ptr %0, i64 4
  %7 = load i32, ptr %6, align 4, !tbaa !14
  %8 = sub nsw i32 %5, %7
  %9 = icmp sgt i32 %8, 0
  br i1 %9, label %.lr.ph, label %._crit_edge

.lr.ph:                                           ; preds = %3
  %10 = getelementptr inbounds nuw i8, ptr %0, i64 40
  %11 = load ptr, ptr %10, align 8, !tbaa !15
  %12 = sext i32 %1 to i64
  %13 = getelementptr inbounds ptr, ptr %11, i64 %12
  %14 = load ptr, ptr %13, align 8, !tbaa !16
  %15 = sext i32 %2 to i64
  %16 = getelementptr inbounds ptr, ptr %11, i64 %15
  %17 = getelementptr inbounds nuw i8, ptr %0, i64 32
  %wide.trip.count = zext nneg i32 %8 to i64
  br label %18

18:                                               ; preds = %.lr.ph, %.thread27
  %indvars.iv = phi i64 [ 0, %.lr.ph ], [ %indvars.iv.next, %.thread27 ]
  %.029 = phi i32 [ 0, %.lr.ph ], [ %.1, %.thread27 ]
  %19 = getelementptr inbounds nuw i8, ptr %14, i64 %indvars.iv
  %20 = load i8, ptr %19, align 1, !tbaa !17
  switch i8 %20, label %.thread27 [
    i8 1, label %21
    i8 0, label %31
  ]

21:                                               ; preds = %18
  %22 = load ptr, ptr %16, align 8, !tbaa !16
  %23 = getelementptr inbounds nuw i8, ptr %22, i64 %indvars.iv
  %24 = load i8, ptr %23, align 1, !tbaa !17
  switch i8 %24, label %.thread27 [
    i8 1, label %25
    i8 0, label %36
  ]

25:                                               ; preds = %21
  %26 = load ptr, ptr %17, align 8, !tbaa !18
  %27 = getelementptr inbounds nuw i32, ptr %26, i64 %indvars.iv
  %28 = load i32, ptr %27, align 4, !tbaa !19
  %29 = icmp eq i32 %28, 2
  %30 = add nsw i32 %.029, 2
  %spec.select = select i1 %29, i32 %30, i32 %.029
  br label %.thread27

31:                                               ; preds = %18
  %32 = load ptr, ptr %16, align 8, !tbaa !16
  %33 = getelementptr inbounds nuw i8, ptr %32, i64 %indvars.iv
  %34 = load i8, ptr %33, align 1, !tbaa !17
  %35 = icmp eq i8 %34, 1
  br i1 %35, label %36, label %.thread27

36:                                               ; preds = %21, %31
  %37 = add nsw i32 %.029, -1
  br label %.thread27

.thread27:                                        ; preds = %25, %21, %18, %36, %31
  %.1 = phi i32 [ %37, %36 ], [ %.029, %31 ], [ %.029, %18 ], [ %spec.select, %25 ], [ %.029, %21 ]
  %indvars.iv.next = add nuw nsw i64 %indvars.iv, 1
  %exitcond.not = icmp eq i64 %indvars.iv.next, %wide.trip.count
  br i1 %exitcond.not, label %._crit_edge, label %18, !llvm.loop !20

._crit_edge:                                      ; preds = %.thread27, %3
  %.0.lcssa = phi i32 [ 0, %3 ], [ %.1, %.thread27 ]
  ret i32 %.0.lcssa
}